target datalayout = "e-m:e-p270:32:32-p271:32:32-p272:64:64-i64:64-i128:128-f80:128-n8:16:32:64-S128"
target triple = "x86_64-pc-linux-gnu"

@.str.9 = private unnamed_addr constant [8 x i8] c"unknown\00", align 1
@.str.18 = private unnamed_addr constant [5 x i8] c"none\00", align 1
@.str.28 = private unnamed_addr constant [4 x i8] c"all\00", align 1
@.str.29 = private unnamed_addr constant [19 x i8] c"stretch-flex-basis\00", align 1
@.str.30 = private unnamed_addr constant [50 x i8] c"absolute-position-without-insets-excludes-padding\00", align 1
@.str.31 = private unnamed_addr constant [36 x i8] c"absolute-percent-against-inner-size\00", align 1
@.str.32 = private unnamed_addr constant [8 x i8] c"classic\00", align 1

; Function Attrs: mustprogress nounwind uwtable
define ptr @YGErrataToString(i32 noundef %0) #0 {
  %2 = alloca ptr, align 8
  %3 = alloca i32, align 4
  store i32 %0, ptr %3, align 4, !tbaa !18
  %4 = load i32, ptr %3, align 4, !tbaa !18
  switch i32 %4, label %11 [
    i32 0, label %5
    i32 1, label %6
    i32 2, label %7
    i32 4, label %8
    i32 2147483647, label %9
    i32 2147483646, label %10
  ]

5:                                                ; preds = %1
  store ptr @.str.18, ptr %2, align 8
  br label %12

6:                                                ; preds = %1
  store ptr @.str.29, ptr %2, align 8
  br label %12

7:                                                ; preds = %1
  store ptr @.str.30, ptr %2, align 8
  br label %12

8:                                                ; preds = %1
  store ptr @.str.31, ptr %2, align 8
  br label %12

9:                                                ; preds = %1
  store ptr @.str.28, ptr %2, align 8
  br label %12

10:                                               ; preds = %1
  store ptr @.str.32, ptr %2, align 8
  br label %12

11:                                               ; preds = %1
  store ptr @.str.9, ptr %2, align 8
  br label %12

12:                                               ; preds = %11, %10, %9, %8, %7, %6, %5
  %13 = load ptr, ptr %2, align 8
  ret ptr %13
}