; Function Attrs: mustprogress nofree norecurse nosync nounwind willreturn memory(none) uwtable
define noundef nonnull ptr @YGErrataToString(i32 noundef %0) local_unnamed_addr #0 {
  switch i32 %0, label %7 [
    i32 0, label %8
    i32 1, label %2
    i32 2, label %3
    i32 4, label %4
    i32 2147483647, label %5
    i32 2147483646, label %6
  ]

2:                                                ; preds = %1
  br label %8

3:                                                ; preds = %1
  br label %8

4:                                                ; preds = %1
  br label %8

5:                                                ; preds = %1
  br label %8

6:                                                ; preds = %1
  br label %8

7:                                                ; preds = %1
  br label %8

8:                                                ; preds = %1, %7, %6, %5, %4, %3, %2
  %.0 = phi ptr [ @.str.9, %7 ], [ @.str.32, %6 ], [ @.str.28, %5 ], [ @.str.31, %4 ], [ @.str.30, %3 ], [ @.str.29, %2 ], [ @.str.18, %1 ]
  ret ptr %.0
}